(lp0
(lp1
S'status'
p2
aI0
a(lp3
aS'switch'
p4
aa(lp5
S'mode'
p6
aI1
a(lp7
ag4
aa(lp8
S'color'
p9
aI255
a(lp10
(lp11
I2
ag6
aI0
aaaS'hue'
p12
aa(lp13
S'temp'
p14
aI163
a(lp15
(lp16
I2
ag6
aI1
aaaS'slider'
p17
aa(lp18
S'brightness'
p19
aI100
a(lp20
ag17
aa.